target datalayout = "e-m:e-p270:32:32-p271:32:32-p272:64:64-i64:64-i128:128-f80:128-n8:16:32:64-S128"
target triple = "x86_64-pc-linux-gnu"

%"class.zmq::stream_connecter_base_t" = type { %"class.zmq::own_t.base", %"class.zmq::io_object_t", ptr, i32, ptr, %"class.std::__cxx11::basic_string", ptr, i8, i8, i32, ptr }
%"class.zmq::own_t.base" = type <{ %"class.zmq::object_t.base", [4 x i8], %"struct.zmq::options_t", i8, [7 x i8], %"class.zmq::atomic_counter_t", i64, ptr, %"class.std::set.24", i32 }>
%"class.zmq::object_t.base" = type <{ ptr, ptr, i32 }>
%"struct.zmq::options_t" = type { i32, i32, i64, i8, [256 x i8], i32, i32, i32, i32, i32, i32, i32, i32, i8, %"struct.zmq::atomic_value_t", i32, i32, i32, i32, i32, i32, i64, i32, i32, i8, i32, i8, i8, i8, i8, i8, %"class.std::__cxx11::basic_string", %"class.std::__cxx11::basic_string", %"class.std::__cxx11::basic_string", i32, i32, i32, i32, %"class.std::vector", %"class.std::set", %"class.std::set", %"class.std::set.6", i32, i32, %"class.std::__cxx11::basic_string", %"class.std::__cxx11::basic_string", %"class.std::__cxx11::basic_string", [32 x i8], [32 x i8], [32 x i8], %"class.std::__cxx11::basic_string", %"class.std::__cxx11::basic_string", i32, i32, i8, i32, i8, i32, i8, i16, i32, i32, i32, %"class.std::__cxx11::basic_string", i8, i8, i8, i32, i32, i8, i32, %"class.std::map", i32, %"class.std::__cxx11::basic_string", %"class.std::__cxx11::basic_string", %"class.std::__cxx11::basic_string", %"class.std::__cxx11::basic_string", i8, %"class.std::vector.17", i8, %"class.std::vector.17", i8, %"class.std::vector.17", i8, i32, i8, i32, i32, i32, i32, i32, i8, i32 }
%"struct.zmq::atomic_value_t" = type { %"struct.std::atomic" }
%"struct.std::atomic" = type { %"struct.std::__atomic_base" }
%"struct.std::__atomic_base" = type { i32 }
%"class.std::vector" = type { %"struct.std::_Vector_base" }
%"struct.std::_Vector_base" = type { %"struct.std::_Vector_base<zmq::tcp_address_mask_t, std::allocator<zmq::tcp_address_mask_t>>::_Vector_impl" }
%"struct.std::_Vector_base<zmq::tcp_address_mask_t, std::allocator<zmq::tcp_address_mask_t>>::_Vector_impl" = type { %"struct.std::_Vector_base<zmq::tcp_address_mask_t, std::allocator<zmq::tcp_address_mask_t>>::_Vector_impl_data" }
%"struct.std::_Vector_base<zmq::tcp_address_mask_t, std::allocator<zmq::tcp_address_mask_t>>::_Vector_impl_data" = type { ptr, ptr, ptr }
%"class.std::set" = type { %"class.std::_Rb_tree" }
%"class.std::_Rb_tree" = type { %"struct.std::_Rb_tree<unsigned int, unsigned int, std::_Identity<unsigned int>, std::less<unsigned int>>::_Rb_tree_impl" }
%"struct.std::_Rb_tree<unsigned int, unsigned int, std::_Identity<unsigned int>, std::less<unsigned int>>::_Rb_tree_impl" = type { [8 x i8], %"struct.std::_Rb_tree_header" }
%"struct.std::_Rb_tree_header" = type { %"struct.std::_Rb_tree_node_base", i64 }
%"struct.std::_Rb_tree_node_base" = type { i32, ptr, ptr, ptr }
%"class.std::set.6" = type { %"class.std::_Rb_tree.7" }
%"class.std::_Rb_tree.7" = type { %"struct.std::_Rb_tree<int, int, std::_Identity<int>, std::less<int>>::_Rb_tree_impl" }
%"struct.std::_Rb_tree<int, int, std::_Identity<int>, std::less<int>>::_Rb_tree_impl" = type { [8 x i8], %"struct.std::_Rb_tree_header" }
%"class.std::map" = type { %"class.std::_Rb_tree.12" }
%"class.std::_Rb_tree.12" = type { %"struct.std::_Rb_tree<std::__cxx11::basic_string<char>, std::pair<const std::__cxx11::basic_string<char>, std::__cxx11::basic_string<char>>, std::_Select1st<std::pair<const std::__cxx11::basic_string<char>, std::__cxx11::basic_string<char>>>, std::less<std::__cxx11::basic_string<char>>>::_Rb_tree_impl" }
%"struct.std::_Rb_tree<std::__cxx11::basic_string<char>, std::pair<const std::__cxx11::basic_string<char>, std::__cxx11::basic_string<char>>, std::_Select1st<std::pair<const std::__cxx11::basic_string<char>, std::__cxx11::basic_string<char>>>, std::less<std::__cxx11::basic_string<char>>>::_Rb_tree_impl" = type { [8 x i8], %"struct.std::_Rb_tree_header" }
%"class.std::vector.17" = type { %"struct.std::_Vector_base.18" }
%"struct.std::_Vector_base.18" = type { %"struct.std::_Vector_base<unsigned char, std::allocator<unsigned char>>::_Vector_impl" }
%"struct.std::_Vector_base<unsigned char, std::allocator<unsigned char>>::_Vector_impl" = type { %"struct.std::_Vector_base<unsigned char, std::allocator<unsigned char>>::_Vector_impl_data" }
%"struct.std::_Vector_base<unsigned char, std::allocator<unsigned char>>::_Vector_impl_data" = type { ptr, ptr, ptr }
%"class.zmq::atomic_counter_t" = type { %"struct.std::atomic.22", [4 x i8] }
%"struct.std::atomic.22" = type { %"struct.std::__atomic_base.23" }
%"struct.std::__atomic_base.23" = type { i32 }
%"class.std::set.24" = type { %"class.std::_Rb_tree.25" }
%"class.std::_Rb_tree.25" = type { %"struct.std::_Rb_tree<zmq::own_t *, zmq::own_t *, std::_Identity<zmq::own_t *>, std::less<zmq::own_t *>>::_Rb_tree_impl" }
%"struct.std::_Rb_tree<zmq::own_t *, zmq::own_t *, std::_Identity<zmq::own_t *>, std::less<zmq::own_t *>>::_Rb_tree_impl" = type { [8 x i8], %"struct.std::_Rb_tree_header" }
%"class.zmq::io_object_t" = type { %"struct.zmq::i_poll_events", ptr }
%"struct.zmq::i_poll_events" = type { ptr }
%"class.std::__cxx11::basic_string" = type { %"struct.std::__cxx11::basic_string<char>::_Alloc_hider", i64, %union.anon }
%"struct.std::__cxx11::basic_string<char>::_Alloc_hider" = type { ptr }
%union.anon = type { i64, [8 x i8] }

@stderr = external global ptr, align 8
@.str = private unnamed_addr constant [30 x i8] c"Assertion failed: %s (%s:%d)\0A\00", align 1
@.str.2 = private unnamed_addr constant [121 x i8] c"generated/home/dtcxzyw/WorkSpace/Projects/compilers/llvm-opt-benchmark/bench/libzmq/libzmq/src/stream_connecter_base.cpp\00", align 1
@.str.9 = private unnamed_addr constant [26 x i8] c"id_ == reconnect_timer_id\00", align 1

; Function Attrs: mustprogress uwtable
define void @_ZN3zmq23stream_connecter_base_t11timer_eventEi(ptr noundef nonnull align 8 dereferenceable(1544) %0, i32 noundef %1) unnamed_addr #0 align 2 {
  %3 = alloca ptr, align 8
  %4 = alloca i32, align 4
  store ptr %0, ptr %3, align 8, !tbaa !3
  store i32 %1, ptr %4, align 4, !tbaa !90
  %5 = load ptr, ptr %3, align 8
  br label %6

6:                                                ; preds = %2
  %7 = load i32, ptr %4, align 4, !tbaa !90
  %8 = icmp eq i32 %7, 1
  %9 = xor i1 %8, true
  %10 = zext i1 %9 to i64
  %11 = call i64 @llvm.expect.i64(i64 %10, i64 0)
  %12 = icmp ne i64 %11, 0
  br i1 %12, label %13, label %18

13:                                               ; preds = %6
  %14 = load ptr, ptr @stderr, align 8, !tbaa !85
  %15 = call i32 (ptr, ptr, ...) @fprintf(ptr noundef %14, ptr noundef @.str, ptr noundef @.str.9, ptr noundef @.str.2, i32 noundef 172) #17
  %16 = load ptr, ptr @stderr, align 8, !tbaa !85
  %17 = call i32 @fflush(ptr noundef %16)
  call void @_ZN3zmq9zmq_abortEPKc(ptr noundef @.str.9)
  br label %18

18:                                               ; preds = %13, %6
  br label %19

19:                                               ; preds = %18
  %20 = getelementptr inbounds nuw %"class.zmq::stream_connecter_base_t", ptr %5, i32 0, i32 8
  store i8 0, ptr %20, align 1, !tbaa !82
  %21 = load ptr, ptr %5, align 8, !tbaa !18
  %22 = getelementptr inbounds ptr, ptr %21, i64 27
  %23 = load ptr, ptr %22, align 8
  call void %23(ptr noundef nonnull align 8 dereferenceable(1544) %5)
  ret void
}