; Function Attrs: mustprogress uwtable
define void @_ZN3zmq23stream_connecter_base_t11timer_eventEi(ptr noundef nonnull align 8 dereferenceable(1544) initializes((1529, 1530)) %0, i32 noundef %1) unnamed_addr #0 align 2 {
  %.not = icmp eq i32 %1, 1
  br i1 %.not, label %8, label %3, !prof !83

3:                                                ; preds = %2
  %4 = load ptr, ptr @stderr, align 8, !tbaa !78
  %5 = tail call i32 (ptr, ptr, ...) @fprintf(ptr noundef %4, ptr noundef nonnull @.str, ptr noundef nonnull @.str.9, ptr noundef nonnull @.str.2, i32 noundef 172) #20
  %6 = load ptr, ptr @stderr, align 8, !tbaa !78
  %7 = tail call i32 @fflush(ptr noundef %6)
  tail call void @_ZN3zmq9zmq_abortEPKc(ptr noundef nonnull @.str.9)
  br label %8

8:                                                ; preds = %2, %3
  %9 = getelementptr inbounds nuw i8, ptr %0, i64 1529
  store i8 0, ptr %9, align 1, !tbaa !74
  %10 = load ptr, ptr %0, align 8, !tbaa !3
  %11 = getelementptr inbounds nuw i8, ptr %10, i64 216
  %12 = load ptr, ptr %11, align 8
  tail call void %12(ptr noundef nonnull align 8 dereferenceable(1544) %0)
  ret void
}